; ModuleID = 'bench/openusd/original/pseudoRootSpec.cpp.ll'
source_filename = "bench/openusd/original/pseudoRootSpec.cpp.ll"
target datalayout = "e-m:e-p270:32:32-p271:32:32-p272:64:64-i64:64-i128:128-f80:128-n8:16:32:64-S128"
target triple = "x86_64-pc-linux-gnu"

%"struct.pxrInternal_v0_24__pxrReserved__::(anonymous namespace)::Tf_RegistryStaticInit" = type { i8 }
%"struct.pxrInternal_v0_24__pxrReserved__::Tf_BaseTypeInfos" = type { [1 x ptr] }
%"struct.pxrInternal_v0_24__pxrReserved__::Tf_TypeCastFunctions" = type { [1 x ptr] }

$_ZN32pxrInternal_v0_24__pxrReserved__15Tf_CastToParentINS_17SdfPseudoRootSpecENS_11SdfPrimSpecEEEPvS3_b = comdat any

$__clang_call_terminate = comdat any

$_ZTSN32pxrInternal_v0_24__pxrReserved__17SdfPseudoRootSpecE = comdat any

$_ZTSN32pxrInternal_v0_24__pxrReserved__11SdfPrimSpecE = comdat any

$_ZTSN32pxrInternal_v0_24__pxrReserved__7SdfSpecE = comdat any

$_ZTIN32pxrInternal_v0_24__pxrReserved__7SdfSpecE = comdat any

$_ZTIN32pxrInternal_v0_24__pxrReserved__11SdfPrimSpecE = comdat any

$_ZTIN32pxrInternal_v0_24__pxrReserved__17SdfPseudoRootSpecE = comdat any

@.str = private unnamed_addr constant [4 x i8] c"sdf\00", align 1
@.str.1 = private unnamed_addr constant [7 x i8] c"TfType\00", align 1
@.str.2 = private unnamed_addr constant [24 x i8] c"SdfSpecTypeRegistration\00", align 1
@_ZN32pxrInternal_v0_24__pxrReserved__15Arch_PerLibInitINS_12_GLOBAL__N_121Tf_RegistryStaticInitEE4initE = internal global %"struct.pxrInternal_v0_24__pxrReserved__::(anonymous namespace)::Tf_RegistryStaticInit" zeroinitializer, align 1
@__dso_handle = external hidden global i8
@_ZTVN10__cxxabiv120__si_class_type_infoE = external global [0 x ptr]
@_ZTSN32pxrInternal_v0_24__pxrReserved__17SdfPseudoRootSpecE = linkonce_odr constant [56 x i8] c"N32pxrInternal_v0_24__pxrReserved__17SdfPseudoRootSpecE\00", comdat, align 1
@_ZTSN32pxrInternal_v0_24__pxrReserved__11SdfPrimSpecE = linkonce_odr constant [50 x i8] c"N32pxrInternal_v0_24__pxrReserved__11SdfPrimSpecE\00", comdat, align 1
@_ZTVN10__cxxabiv117__class_type_infoE = external global [0 x ptr]
@_ZTSN32pxrInternal_v0_24__pxrReserved__7SdfSpecE = linkonce_odr constant [45 x i8] c"N32pxrInternal_v0_24__pxrReserved__7SdfSpecE\00", comdat, align 1
@_ZTIN32pxrInternal_v0_24__pxrReserved__7SdfSpecE = linkonce_odr constant { ptr, ptr } { ptr getelementptr inbounds (ptr, ptr @_ZTVN10__cxxabiv117__class_type_infoE, i64 2), ptr @_ZTSN32pxrInternal_v0_24__pxrReserved__7SdfSpecE }, comdat, align 8
@_ZTIN32pxrInternal_v0_24__pxrReserved__11SdfPrimSpecE = linkonce_odr constant { ptr, ptr, ptr } { ptr getelementptr inbounds (ptr, ptr @_ZTVN10__cxxabiv120__si_class_type_infoE, i64 2), ptr @_ZTSN32pxrInternal_v0_24__pxrReserved__11SdfPrimSpecE, ptr @_ZTIN32pxrInternal_v0_24__pxrReserved__7SdfSpecE }, comdat, align 8
@_ZTIN32pxrInternal_v0_24__pxrReserved__17SdfPseudoRootSpecE = linkonce_odr constant { ptr, ptr, ptr } { ptr getelementptr inbounds (ptr, ptr @_ZTVN10__cxxabiv120__si_class_type_infoE, i64 2), ptr @_ZTSN32pxrInternal_v0_24__pxrReserved__17SdfPseudoRootSpecE, ptr @_ZTIN32pxrInternal_v0_24__pxrReserved__11SdfPrimSpecE }, comdat, align 8
@_ZTIN32pxrInternal_v0_24__pxrReserved__9SdfSchemaE = external constant ptr
@llvm.global_ctors = appending global [4 x { i32, ptr, ptr }] [{ i32, ptr, ptr } { i32 65535, ptr @__cxx_global_var_init.4, ptr null }, { i32, ptr, ptr } { i32 200, ptr @_ZN32pxrInternal_v0_24__pxrReserved__L21_Tf_RegistryAddType16EPNS_6TfTypeE, ptr null }, { i32, ptr, ptr } { i32 200, ptr @_ZN32pxrInternal_v0_24__pxrReserved__L29_Tf_RegistryAddRegistration16EPNS_23SdfSpecTypeRegistrationE, ptr null }, { i32, ptr, ptr } { i32 65535, ptr @_GLOBAL__sub_I_pseudoRootSpec.cpp, ptr null }]
@llvm.compiler.used = appending global [2 x ptr] [ptr @_ZN32pxrInternal_v0_24__pxrReserved__L21_Tf_RegistryAddType16EPNS_6TfTypeE, ptr @_ZN32pxrInternal_v0_24__pxrReserved__L29_Tf_RegistryAddRegistration16EPNS_23SdfSpecTypeRegistrationE], section "llvm.metadata"

; Function Attrs: mustprogress uwtable
define internal void @_ZN32pxrInternal_v0_24__pxrReserved__L21_Tf_RegistryAddType16EPNS_6TfTypeE(ptr readnone captures(none) %0) #0 section ".pxrctor" {
  tail call void @_ZN32pxrInternal_v0_24__pxrReserved__15Tf_RegistryInit3AddEPKcPFvPvS3_ES2_(ptr noundef nonnull @.str, ptr noundef nonnull @_ZN32pxrInternal_v0_24__pxrReserved__L26_Tf_RegistryFunctionType16EPNS_6TfTypeEPv, ptr noundef nonnull @.str.1)
  ret void
}

; Function Attrs: mustprogress uwtable
define internal void @_ZN32pxrInternal_v0_24__pxrReserved__L26_Tf_RegistryFunctionType16EPNS_6TfTypeEPv(ptr readnone captures(none) %0, ptr readnone captures(none) %1) #0 {
  %3 = alloca %"struct.pxrInternal_v0_24__pxrReserved__::Tf_BaseTypeInfos", align 8
  %4 = alloca %"struct.pxrInternal_v0_24__pxrReserved__::Tf_TypeCastFunctions", align 8
  call void @llvm.lifetime.start.p0(i64 8, ptr nonnull %3)
  call void @llvm.lifetime.start.p0(i64 8, ptr nonnull %4)
  store ptr @_ZTIN32pxrInternal_v0_24__pxrReserved__11SdfPrimSpecE, ptr %3, align 8
  store ptr @_ZN32pxrInternal_v0_24__pxrReserved__15Tf_CastToParentINS_17SdfPseudoRootSpecENS_11SdfPrimSpecEEEPvS3_b, ptr %4, align 8
  %5 = call noundef nonnull align 8 dereferenceable(8) ptr @_ZN32pxrInternal_v0_24__pxrReserved__6TfType11_DefineImplERKSt9type_infoPPS2_PPFPvS6_bEmmbb(ptr noundef nonnull align 8 dereferenceable(16) @_ZTIN32pxrInternal_v0_24__pxrReserved__17SdfPseudoRootSpecE, ptr noundef nonnull %3, ptr noundef nonnull %4, i64 noundef 1, i64 noundef 8, i1 noundef zeroext false, i1 noundef zeroext false)
  call void @llvm.lifetime.end.p0(i64 8, ptr nonnull %3)
  call void @llvm.lifetime.end.p0(i64 8, ptr nonnull %4)
  ret void
}

; Function Attrs: mustprogress uwtable
define internal void @_ZN32pxrInternal_v0_24__pxrReserved__L29_Tf_RegistryAddRegistration16EPNS_23SdfSpecTypeRegistrationE(ptr readnone captures(none) %0) #0 section ".pxrctor" {
  tail call void @_ZN32pxrInternal_v0_24__pxrReserved__15Tf_RegistryInit3AddEPKcPFvPvS3_ES2_(ptr noundef nonnull @.str, ptr noundef nonnull @_ZN32pxrInternal_v0_24__pxrReserved__L34_Tf_RegistryFunctionRegistration16EPNS_23SdfSpecTypeRegistrationEPv, ptr noundef nonnull @.str.2)
  ret void
}

; Function Attrs: mustprogress uwtable
define internal void @_ZN32pxrInternal_v0_24__pxrReserved__L34_Tf_RegistryFunctionRegistration16EPNS_23SdfSpecTypeRegistrationEPv(ptr readnone captures(none) %0, ptr readnone captures(none) %1) #0 {
  tail call void @_ZN32pxrInternal_v0_24__pxrReserved__23SdfSpecTypeRegistration17_RegisterSpecTypeERKSt9type_infoNS_11SdfSpecTypeES3_(ptr noundef nonnull align 8 dereferenceable(16) @_ZTIN32pxrInternal_v0_24__pxrReserved__17SdfPseudoRootSpecE, i32 noundef 7, ptr noundef nonnull align 8 dereferenceable(16) @_ZTIN32pxrInternal_v0_24__pxrReserved__9SdfSchemaE)
  ret void
}

; Function Attrs: uwtable
define internal void @__cxx_global_var_init.4() #1 section ".text.startup" {
  tail call void @_ZN32pxrInternal_v0_24__pxrReserved__19Tf_RegistryInitCtorEPKc(ptr noundef nonnull @.str)
  %1 = tail call i32 @__cxa_atexit(ptr nonnull @_ZN32pxrInternal_v0_24__pxrReserved__12_GLOBAL__N_121Tf_RegistryStaticInitD2Ev, ptr nonnull @_ZN32pxrInternal_v0_24__pxrReserved__15Arch_PerLibInitINS_12_GLOBAL__N_121Tf_RegistryStaticInitEE4initE, ptr nonnull @__dso_handle) #9
  ret void
}

; Function Attrs: mustprogress nounwind uwtable
define internal void @_ZN32pxrInternal_v0_24__pxrReserved__12_GLOBAL__N_121Tf_RegistryStaticInitD2Ev(ptr nonnull readnone align 1 captures(none) %0) unnamed_addr #2 align 2 personality ptr @__gxx_personality_v0 {
  invoke void @_ZN32pxrInternal_v0_24__pxrReserved__19Tf_RegistryInitDtorEPKc(ptr noundef nonnull @.str)
          to label %2 unwind label %3

2:                                                ; preds = %1
  ret void

3:                                                ; preds = %1
  %4 = landingpad { ptr, i32 }
          catch ptr null
  %5 = extractvalue { ptr, i32 } %4, 0
  tail call void @__clang_call_terminate(ptr %5) #10
  unreachable
}

; Function Attrs: nofree nounwind
declare i32 @__cxa_atexit(ptr, ptr, ptr) local_unnamed_addr #3

declare noundef nonnull align 8 dereferenceable(8) ptr @_ZN32pxrInternal_v0_24__pxrReserved__6TfType11_DefineImplERKSt9type_infoPPS2_PPFPvS6_bEmmbb(ptr noundef nonnull align 8 dereferenceable(16), ptr noundef, ptr noundef, i64 noundef, i64 noundef, i1 noundef zeroext, i1 noundef zeroext) local_unnamed_addr #4

; Function Attrs: mustprogress nounwind uwtable
define linkonce_odr noundef ptr @_ZN32pxrInternal_v0_24__pxrReserved__15Tf_CastToParentINS_17SdfPseudoRootSpecENS_11SdfPrimSpecEEEPvS3_b(ptr noundef %0, i1 noundef zeroext %1) #2 comdat {
  ret ptr %0
}

declare void @_ZN32pxrInternal_v0_24__pxrReserved__23SdfSpecTypeRegistration17_RegisterSpecTypeERKSt9type_infoNS_11SdfSpecTypeES3_(ptr noundef nonnull align 8 dereferenceable(16), i32 noundef, ptr noundef nonnull align 8 dereferenceable(16)) local_unnamed_addr #4

declare void @_ZN32pxrInternal_v0_24__pxrReserved__15Tf_RegistryInit3AddEPKcPFvPvS3_ES2_(ptr noundef, ptr noundef, ptr noundef) local_unnamed_addr #4

declare void @_ZN32pxrInternal_v0_24__pxrReserved__19Tf_RegistryInitCtorEPKc(ptr noundef) local_unnamed_addr #4

declare void @_ZN32pxrInternal_v0_24__pxrReserved__19Tf_RegistryInitDtorEPKc(ptr noundef) local_unnamed_addr #4

declare i32 @__gxx_personality_v0(...)

; Function Attrs: noreturn nounwind uwtable
define linkonce_odr hidden void @__clang_call_terminate(ptr noundef %0) local_unnamed_addr #5 comdat {
  %2 = tail call ptr @__cxa_begin_catch(ptr %0) #9
  tail call void @_ZSt9terminatev() #10
  unreachable
}

declare ptr @__cxa_begin_catch(ptr) local_unnamed_addr

; Function Attrs: cold nofree noreturn
declare void @_ZSt9terminatev() local_unnamed_addr #6

; Function Attrs: mustprogress nofree norecurse nosync nounwind willreturn memory(none) uwtable
define internal void @_GLOBAL__sub_I_pseudoRootSpec.cpp() #7 section ".text.startup" {
  ret void
}

; Function Attrs: nocallback nofree nosync nounwind willreturn memory(argmem: readwrite)
declare void @llvm.lifetime.start.p0(i64 immarg, ptr captures(none)) #8

; Function Attrs: nocallback nofree nosync nounwind willreturn memory(argmem: readwrite)
declare void @llvm.lifetime.end.p0(i64 immarg, ptr captures(none)) #8


!llvm.module.flags = !{!0, !1, !2, !3}

!0 = !{i32 1, !"wchar_size", i32 4}
!1 = !{i32 8, !"PIC Level", i32 2}
!2 = !{i32 7, !"uwtable", i32 2}
!3 = !{i32 7, !"frame-pointer", i32 2}
